target datalayout = "e-m:e-p270:32:32-p271:32:32-p272:64:64-i64:64-i128:128-f80:128-n8:16:32:64-S128"
target triple = "x86_64-pc-linux-gnu"

%struct.mbedtls_sha512_context = type { [2 x i64], [8 x i64], [128 x i8], i32 }

; Function Attrs: nounwind uwtable
define internal i64 @mbedtls_internal_sha512_process_many(ptr noundef %0, ptr noundef %1, i64 noundef %2) #0 {
  %4 = alloca i64, align 8
  %5 = alloca ptr, align 8
  %6 = alloca ptr, align 8
  %7 = alloca i64, align 8
  %8 = alloca i64, align 8
  %9 = alloca i32, align 4
  store ptr %0, ptr %5, align 8, !tbaa !3
  store ptr %1, ptr %6, align 8, !tbaa !16
  store i64 %2, ptr %7, align 8, !tbaa !12
  call void @llvm.lifetime.start.p0(i64 8, ptr %8) #10
  store i64 0, ptr %8, align 8, !tbaa !12
  br label %10

10:                                               ; preds = %19, %3
  %11 = load i64, ptr %7, align 8, !tbaa !12
  %12 = icmp uge i64 %11, 128
  br i1 %12, label %13, label %26

13:                                               ; preds = %10
  %14 = load ptr, ptr %5, align 8, !tbaa !3
  %15 = load ptr, ptr %6, align 8, !tbaa !16
  %16 = call i32 @mbedtls_internal_sha512_process(ptr noundef %14, ptr noundef %15)
  %17 = icmp ne i32 %16, 0
  br i1 %17, label %18, label %19

18:                                               ; preds = %13
  store i64 0, ptr %4, align 8
  store i32 1, ptr %9, align 4
  br label %28

19:                                               ; preds = %13
  %20 = load ptr, ptr %6, align 8, !tbaa !16
  %21 = getelementptr inbounds i8, ptr %20, i64 128
  store ptr %21, ptr %6, align 8, !tbaa !16
  %22 = load i64, ptr %7, align 8, !tbaa !12
  %23 = sub i64 %22, 128
  store i64 %23, ptr %7, align 8, !tbaa !12
  %24 = load i64, ptr %8, align 8, !tbaa !12
  %25 = add i64 %24, 128
  store i64 %25, ptr %8, align 8, !tbaa !12
  br label %10, !llvm.loop !29

26:                                               ; preds = %10
  %27 = load i64, ptr %8, align 8, !tbaa !12
  store i64 %27, ptr %4, align 8
  store i32 1, ptr %9, align 4
  br label %28

28:                                               ; preds = %26, %18
  call void @llvm.lifetime.end.p0(i64 8, ptr %8) #10
  %29 = load i64, ptr %4, align 8
  ret i64 %29
}

; Function Attrs: nounwind uwtable
define hidden i32 @mbedtls_sha512_update(ptr noundef %0, ptr noundef %1, i64 noundef %2) #0 {
  %4 = alloca i32, align 4
  %5 = alloca ptr, align 8
  %6 = alloca ptr, align 8
  %7 = alloca i64, align 8
  %8 = alloca i32, align 4
  %9 = alloca i64, align 8
  %10 = alloca i32, align 4
  %11 = alloca i32, align 4
  %12 = alloca i64, align 8
  store ptr %0, ptr %5, align 8, !tbaa !3
  store ptr %1, ptr %6, align 8, !tbaa !16
  store i64 %2, ptr %7, align 8, !tbaa !12
  call void @llvm.lifetime.start.p0(i64 4, ptr %8) #10
  store i32 -110, ptr %8, align 4, !tbaa !10
  call void @llvm.lifetime.start.p0(i64 8, ptr %9) #10
  call void @llvm.lifetime.start.p0(i64 4, ptr %10) #10
  %13 = load i64, ptr %7, align 8, !tbaa !12
  %14 = icmp eq i64 %13, 0
  br i1 %14, label %15, label %16

15:                                               ; preds = %3
  store i32 0, ptr %4, align 4
  store i32 1, ptr %11, align 4
  br label %110

16:                                               ; preds = %3
  %17 = load ptr, ptr %5, align 8, !tbaa !3
  %18 = getelementptr inbounds nuw %struct.mbedtls_sha512_context, ptr %17, i32 0, i32 0
  %19 = getelementptr inbounds [2 x i64], ptr %18, i64 0, i64 0
  %20 = load i64, ptr %19, align 8, !tbaa !12
  %21 = and i64 %20, 127
  %22 = trunc i64 %21 to i32
  store i32 %22, ptr %10, align 4, !tbaa !10
  %23 = load i32, ptr %10, align 4, !tbaa !10
  %24 = sub i32 128, %23
  %25 = zext i32 %24 to i64
  store i64 %25, ptr %9, align 8, !tbaa !12
  %26 = load i64, ptr %7, align 8, !tbaa !12
  %27 = load ptr, ptr %5, align 8, !tbaa !3
  %28 = getelementptr inbounds nuw %struct.mbedtls_sha512_context, ptr %27, i32 0, i32 0
  %29 = getelementptr inbounds [2 x i64], ptr %28, i64 0, i64 0
  %30 = load i64, ptr %29, align 8, !tbaa !12
  %31 = add i64 %30, %26
  store i64 %31, ptr %29, align 8, !tbaa !12
  %32 = load ptr, ptr %5, align 8, !tbaa !3
  %33 = getelementptr inbounds nuw %struct.mbedtls_sha512_context, ptr %32, i32 0, i32 0
  %34 = getelementptr inbounds [2 x i64], ptr %33, i64 0, i64 0
  %35 = load i64, ptr %34, align 8, !tbaa !12
  %36 = load i64, ptr %7, align 8, !tbaa !12
  %37 = icmp ult i64 %35, %36
  br i1 %37, label %38, label %44

38:                                               ; preds = %16
  %39 = load ptr, ptr %5, align 8, !tbaa !3
  %40 = getelementptr inbounds nuw %struct.mbedtls_sha512_context, ptr %39, i32 0, i32 0
  %41 = getelementptr inbounds [2 x i64], ptr %40, i64 0, i64 1
  %42 = load i64, ptr %41, align 8, !tbaa !12
  %43 = add i64 %42, 1
  store i64 %43, ptr %41, align 8, !tbaa !12
  br label %44

44:                                               ; preds = %38, %16
  %45 = load i32, ptr %10, align 4, !tbaa !10
  %46 = icmp ne i32 %45, 0
  br i1 %46, label %47, label %75

47:                                               ; preds = %44
  %48 = load i64, ptr %7, align 8, !tbaa !12
  %49 = load i64, ptr %9, align 8, !tbaa !12
  %50 = icmp uge i64 %48, %49
  br i1 %50, label %51, label %75

51:                                               ; preds = %47
  %52 = load ptr, ptr %5, align 8, !tbaa !3
  %53 = getelementptr inbounds nuw %struct.mbedtls_sha512_context, ptr %52, i32 0, i32 2
  %54 = getelementptr inbounds [128 x i8], ptr %53, i64 0, i64 0
  %55 = load i32, ptr %10, align 4, !tbaa !10
  %56 = zext i32 %55 to i64
  %57 = getelementptr inbounds nuw i8, ptr %54, i64 %56
  %58 = load ptr, ptr %6, align 8, !tbaa !16
  %59 = load i64, ptr %9, align 8, !tbaa !12
  call void @llvm.memcpy.p0.p0.i64(ptr align 1 %57, ptr align 1 %58, i64 %59, i1 false)
  %60 = load ptr, ptr %5, align 8, !tbaa !3
  %61 = load ptr, ptr %5, align 8, !tbaa !3
  %62 = getelementptr inbounds nuw %struct.mbedtls_sha512_context, ptr %61, i32 0, i32 2
  %63 = getelementptr inbounds [128 x i8], ptr %62, i64 0, i64 0
  %64 = call i32 @mbedtls_internal_sha512_process(ptr noundef %60, ptr noundef %63)
  store i32 %64, ptr %8, align 4, !tbaa !10
  %65 = icmp ne i32 %64, 0
  br i1 %65, label %66, label %68

66:                                               ; preds = %51
  %67 = load i32, ptr %8, align 4, !tbaa !10
  store i32 %67, ptr %4, align 4
  store i32 1, ptr %11, align 4
  br label %110

68:                                               ; preds = %51
  %69 = load i64, ptr %9, align 8, !tbaa !12
  %70 = load ptr, ptr %6, align 8, !tbaa !16
  %71 = getelementptr inbounds nuw i8, ptr %70, i64 %69
  store ptr %71, ptr %6, align 8, !tbaa !16
  %72 = load i64, ptr %9, align 8, !tbaa !12
  %73 = load i64, ptr %7, align 8, !tbaa !12
  %74 = sub i64 %73, %72
  store i64 %74, ptr %7, align 8, !tbaa !12
  store i32 0, ptr %10, align 4, !tbaa !10
  br label %75

75:                                               ; preds = %68, %47, %44
  br label %76

76:                                               ; preds = %96, %75
  %77 = load i64, ptr %7, align 8, !tbaa !12
  %78 = icmp uge i64 %77, 128
  br i1 %78, label %79, label %97

79:                                               ; preds = %76
  call void @llvm.lifetime.start.p0(i64 8, ptr %12) #10
  %80 = load ptr, ptr %5, align 8, !tbaa !3
  %81 = load ptr, ptr %6, align 8, !tbaa !16
  %82 = load i64, ptr %7, align 8, !tbaa !12
  %83 = call i64 @mbedtls_internal_sha512_process_many(ptr noundef %80, ptr noundef %81, i64 noundef %82)
  store i64 %83, ptr %12, align 8, !tbaa !12
  %84 = load i64, ptr %12, align 8, !tbaa !12
  %85 = icmp ult i64 %84, 128
  br i1 %85, label %86, label %87

86:                                               ; preds = %79
  store i32 -1, ptr %4, align 4
  store i32 1, ptr %11, align 4
  br label %94

87:                                               ; preds = %79
  %88 = load i64, ptr %12, align 8, !tbaa !12
  %89 = load ptr, ptr %6, align 8, !tbaa !16
  %90 = getelementptr inbounds nuw i8, ptr %89, i64 %88
  store ptr %90, ptr %6, align 8, !tbaa !16
  %91 = load i64, ptr %12, align 8, !tbaa !12
  %92 = load i64, ptr %7, align 8, !tbaa !12
  %93 = sub i64 %92, %91
  store i64 %93, ptr %7, align 8, !tbaa !12
  store i32 0, ptr %11, align 4
  br label %94

94:                                               ; preds = %87, %86
  call void @llvm.lifetime.end.p0(i64 8, ptr %12) #10
  %95 = load i32, ptr %11, align 4
  switch i32 %95, label %110 [
    i32 0, label %96
  ]

96:                                               ; preds = %94
  br label %76, !llvm.loop !28

97:                                               ; preds = %76
  %98 = load i64, ptr %7, align 8, !tbaa !12
  %99 = icmp ugt i64 %98, 0
  br i1 %99, label %100, label %109

100:                                              ; preds = %97
  %101 = load ptr, ptr %5, align 8, !tbaa !3
  %102 = getelementptr inbounds nuw %struct.mbedtls_sha512_context, ptr %101, i32 0, i32 2
  %103 = getelementptr inbounds [128 x i8], ptr %102, i64 0, i64 0
  %104 = load i32, ptr %10, align 4, !tbaa !10
  %105 = zext i32 %104 to i64
  %106 = getelementptr inbounds nuw i8, ptr %103, i64 %105
  %107 = load ptr, ptr %6, align 8, !tbaa !16
  %108 = load i64, ptr %7, align 8, !tbaa !12
  call void @llvm.memcpy.p0.p0.i64(ptr align 1 %106, ptr align 1 %107, i64 %108, i1 false)
  br label %109

109:                                              ; preds = %100, %97
  store i32 0, ptr %4, align 4
  store i32 1, ptr %11, align 4
  br label %110

110:                                              ; preds = %109, %94, %66, %15
  call void @llvm.lifetime.end.p0(i64 4, ptr %10) #10
  call void @llvm.lifetime.end.p0(i64 8, ptr %9) #10
  call void @llvm.lifetime.end.p0(i64 4, ptr %8) #10
  %111 = load i32, ptr %4, align 4
  ret i32 %111
}