; Function Attrs: nounwind uwtable
define hidden noundef i32 @mbedtls_sha512_update(ptr noundef captures(none) %0, ptr noundef readonly captures(none) %1, i64 noundef %2) local_unnamed_addr #2 {
  %4 = icmp eq i64 %2, 0
  br i1 %4, label %40, label %5

5:                                                ; preds = %3
  %6 = load i64, ptr %0, align 8, !tbaa !9
  %7 = trunc i64 %6 to i32
  %8 = and i32 %7, 127
  %9 = sub nuw nsw i32 128, %8
  %10 = zext nneg i32 %9 to i64
  %11 = add i64 %6, %2
  store i64 %11, ptr %0, align 8, !tbaa !9
  %12 = icmp ult i64 %11, %2
  br i1 %12, label %13, label %17

13:                                               ; preds = %5
  %14 = getelementptr inbounds nuw i8, ptr %0, i64 8
  %15 = load i64, ptr %14, align 8, !tbaa !9
  %16 = add i64 %15, 1
  store i64 %16, ptr %14, align 8, !tbaa !9
  br label %17

17:                                               ; preds = %13, %5
  %.not = icmp eq i32 %8, 0
  br i1 %.not, label %26, label %18

18:                                               ; preds = %17
  %.not51 = icmp ult i64 %2, %10
  br i1 %.not51, label %._crit_edge.thread, label %19

19:                                               ; preds = %18
  %20 = getelementptr inbounds nuw i8, ptr %0, i64 80
  %21 = and i64 %6, 127
  %22 = getelementptr inbounds nuw i8, ptr %20, i64 %21
  tail call void @llvm.memcpy.p0.p0.i64(ptr noundef nonnull align 1 dereferenceable(1) %22, ptr noundef nonnull align 1 dereferenceable(1) %1, i64 %10, i1 false)
  %23 = tail call i32 @mbedtls_internal_sha512_process(ptr noundef nonnull %0, ptr noundef nonnull %20)
  %24 = getelementptr inbounds nuw i8, ptr %1, i64 %10
  %25 = sub nuw i64 %2, %10
  br label %26

26:                                               ; preds = %19, %17
  %.042 = phi i64 [ %25, %19 ], [ %2, %17 ]
  %.039 = phi ptr [ %24, %19 ], [ %1, %17 ]
  %27 = icmp ugt i64 %.042, 127
  br i1 %27, label %.preheader, label %._crit_edge

.preheader:                                       ; preds = %26, %mbedtls_internal_sha512_process_many.exit
  %.14054 = phi ptr [ %34, %mbedtls_internal_sha512_process_many.exit ], [ %.039, %26 ]
  %.14353 = phi i64 [ %35, %mbedtls_internal_sha512_process_many.exit ], [ %.042, %26 ]
  br label %28

28:                                               ; preds = %.preheader, %28
  %.012.i = phi i64 [ %32, %28 ], [ 0, %.preheader ]
  %.0711.i = phi i64 [ %31, %28 ], [ %.14353, %.preheader ]
  %.0810.i = phi ptr [ %30, %28 ], [ %.14054, %.preheader ]
  %29 = tail call i32 @mbedtls_internal_sha512_process(ptr noundef nonnull %0, ptr noundef %.0810.i)
  %30 = getelementptr inbounds nuw i8, ptr %.0810.i, i64 128
  %31 = add i64 %.0711.i, -128
  %32 = add nuw i64 %.012.i, 128
  %33 = icmp ugt i64 %31, 127
  br i1 %33, label %28, label %mbedtls_internal_sha512_process_many.exit, !llvm.loop !21

mbedtls_internal_sha512_process_many.exit:        ; preds = %28
  %34 = getelementptr inbounds nuw i8, ptr %.14054, i64 %32
  %35 = sub i64 %.14353, %32
  %36 = icmp ugt i64 %35, 127
  br i1 %36, label %.preheader, label %._crit_edge, !llvm.loop !22

._crit_edge:                                      ; preds = %mbedtls_internal_sha512_process_many.exit, %26
  %.143.lcssa = phi i64 [ %.042, %26 ], [ %35, %mbedtls_internal_sha512_process_many.exit ]
  %.140.lcssa = phi ptr [ %.039, %26 ], [ %34, %mbedtls_internal_sha512_process_many.exit ]
  %.not52 = icmp eq i64 %.143.lcssa, 0
  br i1 %.not52, label %40, label %._crit_edge.thread

._crit_edge.thread:                               ; preds = %18, %._crit_edge
  %.140.lcssa68 = phi ptr [ %.140.lcssa, %._crit_edge ], [ %1, %18 ]
  %.143.lcssa67 = phi i64 [ %.143.lcssa, %._crit_edge ], [ %2, %18 ]
  %.0386166 = phi i32 [ 0, %._crit_edge ], [ %8, %18 ]
  %37 = getelementptr inbounds nuw i8, ptr %0, i64 80
  %38 = zext nneg i32 %.0386166 to i64
  %39 = getelementptr inbounds nuw i8, ptr %37, i64 %38
  tail call void @llvm.memcpy.p0.p0.i64(ptr nonnull align 1 %39, ptr align 1 %.140.lcssa68, i64 %.143.lcssa67, i1 false)
  br label %40

40:                                               ; preds = %._crit_edge, %._crit_edge.thread, %3
  ret i32 0
}